target datalayout = "e-m:e-p270:32:32-p271:32:32-p272:64:64-i64:64-i128:128-f80:128-n8:16:32:64-S128"
target triple = "x86_64-pc-linux-gnu"

%struct.GCRef = type { i64 }
%struct.GCstr = type { %struct.GCRef, i8, i8, i8, i8, i32, i32, i32 }
%struct.GCudata = type { %struct.GCRef, i8, i8, i8, i8, %struct.GCRef, i32, %struct.GCRef, i32 }
%struct.SBufExt = type { ptr, ptr, ptr, %struct.MRef, %union.anon.2, ptr, %struct.GCRef, %struct.GCRef, i32 }
%struct.MRef = type { i64 }
%union.anon.2 = type { %struct.GCRef }
%struct.SBuf = type { ptr, ptr, ptr, %struct.MRef }
%struct.lua_State = type { %struct.GCRef, i8, i8, i8, i8, %struct.MRef, %struct.GCRef, ptr, ptr, %struct.MRef, %struct.MRef, %struct.GCRef, %struct.GCRef, ptr, i32 }
%struct.global_State = type { ptr, ptr, %struct.GCState, %struct.GCstr, i8, i8, i8, i8, %struct.StrInternState, i32, %struct.GCRef, %struct.SBuf, %union.TValue, %union.TValue, %struct.Node, %union.TValue, %struct.GCupval, i32, i32, ptr, ptr, ptr, i32, i32, %struct.GCRef, %struct.MRef, %struct.MRef, %struct.PRNGState, [39 x %struct.GCRef] }
%struct.GCState = type { i64, i64, i8, i8, i8, i8, i32, %struct.GCRef, %struct.MRef, %struct.GCRef, %struct.GCRef, %struct.GCRef, %struct.GCRef, i64, i64, i32, i32, %struct.MRef }
%struct.StrInternState = type { ptr, i32, i32, i32, i8, i8, i8, i8, i64 }
%struct.Node = type { %union.TValue, %union.TValue, %struct.MRef }
%union.TValue = type { i64 }
%struct.GCupval = type { %struct.GCRef, i8, i8, i8, i8, %union.anon, %struct.MRef, i32 }
%union.anon = type { %struct.anon.1 }
%struct.anon.1 = type { %struct.GCRef, %struct.GCRef }
%struct.PRNGState = type { [4 x i64] }

; Function Attrs: alwaysinline nounwind uwtable
define internal void @lj_buf_reset(ptr noundef %0) #5 {
  %2 = alloca ptr, align 8
  store ptr %0, ptr %2, align 8, !tbaa !40
  %3 = load ptr, ptr %2, align 8, !tbaa !40
  %4 = getelementptr inbounds nuw %struct.SBuf, ptr %3, i32 0, i32 2
  %5 = load ptr, ptr %4, align 8, !tbaa !44
  %6 = load ptr, ptr %2, align 8, !tbaa !40
  %7 = getelementptr inbounds nuw %struct.SBuf, ptr %6, i32 0, i32 0
  store ptr %5, ptr %7, align 8, !tbaa !42
  ret void
}

; Function Attrs: alwaysinline nounwind uwtable
define internal ptr @lj_buf_tmp_(ptr noundef %0) #5 {
  %2 = alloca ptr, align 8
  %3 = alloca ptr, align 8
  store ptr %0, ptr %2, align 8, !tbaa !27
  call void @llvm.lifetime.start.p0(i64 8, ptr %3) #10
  %4 = load ptr, ptr %2, align 8, !tbaa !27
  %5 = getelementptr inbounds nuw %struct.lua_State, ptr %4, i32 0, i32 5
  %6 = getelementptr inbounds nuw %struct.MRef, ptr %5, i32 0, i32 0
  %7 = load i64, ptr %6, align 8, !tbaa !45
  %8 = inttoptr i64 %7 to ptr
  %9 = getelementptr inbounds nuw %struct.global_State, ptr %8, i32 0, i32 11
  store ptr %9, ptr %3, align 8, !tbaa !40
  %10 = load ptr, ptr %2, align 8, !tbaa !27
  %11 = ptrtoint ptr %10 to i64
  %12 = load ptr, ptr %3, align 8, !tbaa !40
  %13 = getelementptr inbounds nuw %struct.SBuf, ptr %12, i32 0, i32 3
  %14 = getelementptr inbounds nuw %struct.MRef, ptr %13, i32 0, i32 0
  store i64 %11, ptr %14, align 8, !tbaa !47
  %15 = load ptr, ptr %3, align 8, !tbaa !40
  call void @lj_buf_reset(ptr noundef %15)
  %16 = load ptr, ptr %3, align 8, !tbaa !40
  call void @llvm.lifetime.end.p0(i64 8, ptr %3) #10
  ret ptr %16
}

; Function Attrs: nounwind uwtable
define hidden ptr @lj_strfmt_wstrnum(ptr noundef %0, ptr noundef %1, ptr noundef %2) #0 {
  %4 = alloca ptr, align 8
  %5 = alloca ptr, align 8
  %6 = alloca ptr, align 8
  %7 = alloca ptr, align 8
  %8 = alloca ptr, align 8
  %9 = alloca i32, align 4
  %10 = alloca ptr, align 8
  store ptr %0, ptr %5, align 8, !tbaa !27
  store ptr %1, ptr %6, align 8, !tbaa !29
  store ptr %2, ptr %7, align 8, !tbaa !31
  call void @llvm.lifetime.start.p0(i64 8, ptr %8) #10
  %11 = load ptr, ptr %6, align 8, !tbaa !29
  %12 = load i64, ptr %11, align 8, !tbaa !16
  %13 = ashr i64 %12, 47
  %14 = trunc i64 %13 to i32
  %15 = icmp eq i32 %14, -5
  br i1 %15, label %16, label %31

16:                                               ; preds = %3
  %17 = load ptr, ptr %6, align 8, !tbaa !29
  %18 = getelementptr inbounds nuw %struct.GCRef, ptr %17, i32 0, i32 0
  %19 = load i64, ptr %18, align 8, !tbaa !16
  %20 = and i64 %19, 140737488355327
  %21 = inttoptr i64 %20 to ptr
  %22 = getelementptr inbounds nuw %struct.GCstr, ptr %21, i32 0, i32 7
  %23 = load i32, ptr %22, align 4, !tbaa !16
  %24 = load ptr, ptr %7, align 8, !tbaa !31
  store i32 %23, ptr %24, align 4, !tbaa !17
  %25 = load ptr, ptr %6, align 8, !tbaa !29
  %26 = getelementptr inbounds nuw %struct.GCRef, ptr %25, i32 0, i32 0
  %27 = load i64, ptr %26, align 8, !tbaa !16
  %28 = and i64 %27, 140737488355327
  %29 = inttoptr i64 %28 to ptr
  %30 = getelementptr inbounds %struct.GCstr, ptr %29, i64 1
  store ptr %30, ptr %4, align 8
  store i32 1, ptr %9, align 4
  br label %98

31:                                               ; preds = %3
  %32 = load ptr, ptr %6, align 8, !tbaa !29
  %33 = load i64, ptr %32, align 8, !tbaa !16
  %34 = ashr i64 %33, 47
  %35 = trunc i64 %34 to i32
  %36 = icmp eq i32 %35, -13
  br i1 %36, label %37, label %68

37:                                               ; preds = %31
  %38 = load ptr, ptr %6, align 8, !tbaa !29
  %39 = getelementptr inbounds nuw %struct.GCRef, ptr %38, i32 0, i32 0
  %40 = load i64, ptr %39, align 8, !tbaa !16
  %41 = and i64 %40, 140737488355327
  %42 = inttoptr i64 %41 to ptr
  %43 = getelementptr inbounds nuw %struct.GCudata, ptr %42, i32 0, i32 3
  %44 = load i8, ptr %43, align 2, !tbaa !16
  %45 = zext i8 %44 to i32
  %46 = icmp eq i32 %45, 3
  br i1 %46, label %47, label %68

47:                                               ; preds = %37
  call void @llvm.lifetime.start.p0(i64 8, ptr %10) #10
  %48 = load ptr, ptr %6, align 8, !tbaa !29
  %49 = getelementptr inbounds nuw %struct.GCRef, ptr %48, i32 0, i32 0
  %50 = load i64, ptr %49, align 8, !tbaa !16
  %51 = and i64 %50, 140737488355327
  %52 = inttoptr i64 %51 to ptr
  %53 = getelementptr inbounds %struct.GCudata, ptr %52, i64 1
  store ptr %53, ptr %10, align 8, !tbaa !33
  %54 = load ptr, ptr %10, align 8, !tbaa !33
  %55 = getelementptr inbounds nuw %struct.SBufExt, ptr %54, i32 0, i32 0
  %56 = load ptr, ptr %55, align 8, !tbaa !35
  %57 = load ptr, ptr %10, align 8, !tbaa !33
  %58 = getelementptr inbounds nuw %struct.SBufExt, ptr %57, i32 0, i32 5
  %59 = load ptr, ptr %58, align 8, !tbaa !39
  %60 = ptrtoint ptr %56 to i64
  %61 = ptrtoint ptr %59 to i64
  %62 = sub i64 %60, %61
  %63 = trunc i64 %62 to i32
  %64 = load ptr, ptr %7, align 8, !tbaa !31
  store i32 %63, ptr %64, align 4, !tbaa !17
  %65 = load ptr, ptr %10, align 8, !tbaa !33
  %66 = getelementptr inbounds nuw %struct.SBufExt, ptr %65, i32 0, i32 5
  %67 = load ptr, ptr %66, align 8, !tbaa !39
  store ptr %67, ptr %4, align 8
  store i32 1, ptr %9, align 4
  call void @llvm.lifetime.end.p0(i64 8, ptr %10) #10
  br label %98

68:                                               ; preds = %37, %31
  %69 = load ptr, ptr %6, align 8, !tbaa !29
  %70 = load i64, ptr %69, align 8, !tbaa !16
  %71 = ashr i64 %70, 47
  %72 = trunc i64 %71 to i32
  %73 = icmp ult i32 %72, -14
  br i1 %73, label %74, label %80

74:                                               ; preds = %68
  %75 = load ptr, ptr %5, align 8, !tbaa !27
  %76 = call ptr @lj_buf_tmp_(ptr noundef %75)
  %77 = load ptr, ptr %6, align 8, !tbaa !29
  %78 = load double, ptr %77, align 8, !tbaa !16
  %79 = call ptr @lj_strfmt_putfnum(ptr noundef %76, i32 noundef 251658293, double noundef %78)
  store ptr %79, ptr %8, align 8, !tbaa !40
  br label %81

80:                                               ; preds = %68
  store ptr null, ptr %4, align 8
  store i32 1, ptr %9, align 4
  br label %98

81:                                               ; preds = %74
  br label %82

82:                                               ; preds = %81
  br label %83

83:                                               ; preds = %82
  %84 = load ptr, ptr %8, align 8, !tbaa !40
  %85 = getelementptr inbounds nuw %struct.SBuf, ptr %84, i32 0, i32 0
  %86 = load ptr, ptr %85, align 8, !tbaa !42
  %87 = load ptr, ptr %8, align 8, !tbaa !40
  %88 = getelementptr inbounds nuw %struct.SBuf, ptr %87, i32 0, i32 2
  %89 = load ptr, ptr %88, align 8, !tbaa !44
  %90 = ptrtoint ptr %86 to i64
  %91 = ptrtoint ptr %89 to i64
  %92 = sub i64 %90, %91
  %93 = trunc i64 %92 to i32
  %94 = load ptr, ptr %7, align 8, !tbaa !31
  store i32 %93, ptr %94, align 4, !tbaa !17
  %95 = load ptr, ptr %8, align 8, !tbaa !40
  %96 = getelementptr inbounds nuw %struct.SBuf, ptr %95, i32 0, i32 2
  %97 = load ptr, ptr %96, align 8, !tbaa !44
  store ptr %97, ptr %4, align 8
  store i32 1, ptr %9, align 4
  br label %98

98:                                               ; preds = %83, %80, %47, %16
  call void @llvm.lifetime.end.p0(i64 8, ptr %8) #10
  %99 = load ptr, ptr %4, align 8
  ret ptr %99
}