; Function Attrs: nounwind uwtable
define hidden ptr @lj_strfmt_wstrnum(ptr noundef %0, ptr noundef readonly captures(none) %1, ptr noundef writeonly captures(none) %2) local_unnamed_addr #5 {
  %4 = load i64, ptr %1, align 8, !tbaa !13
  %5 = ashr i64 %4, 47
  switch i64 %5, label %30 [
    i64 -5, label %6
    i64 -13, label %15
  ]

6:                                                ; preds = %3
  %7 = and i64 %4, 140737488355327
  %8 = inttoptr i64 %7 to ptr
  %9 = getelementptr inbounds nuw i8, ptr %8, i64 20
  %10 = load i32, ptr %9, align 4, !tbaa !13
  store i32 %10, ptr %2, align 4, !tbaa !21
  %11 = load i64, ptr %1, align 8, !tbaa !13
  %12 = and i64 %11, 140737488355327
  %13 = inttoptr i64 %12 to ptr
  %14 = getelementptr inbounds nuw i8, ptr %13, i64 24
  br label %50

15:                                               ; preds = %3
  %16 = and i64 %4, 140737488355327
  %17 = inttoptr i64 %16 to ptr
  %18 = getelementptr inbounds nuw i8, ptr %17, i64 10
  %19 = load i8, ptr %18, align 2, !tbaa !13
  %20 = icmp eq i8 %19, 3
  br i1 %20, label %21, label %30

21:                                               ; preds = %15
  %22 = getelementptr inbounds nuw i8, ptr %17, i64 48
  %23 = load ptr, ptr %22, align 8, !tbaa !22
  %24 = getelementptr inbounds nuw i8, ptr %17, i64 88
  %25 = load ptr, ptr %24, align 8, !tbaa !27
  %26 = ptrtoint ptr %23 to i64
  %27 = ptrtoint ptr %25 to i64
  %28 = sub i64 %26, %27
  %29 = trunc i64 %28 to i32
  store i32 %29, ptr %2, align 4, !tbaa !21
  br label %50

30:                                               ; preds = %3, %15
  %31 = icmp ult i64 %4, -1970324836974592
  br i1 %31, label %32, label %50

32:                                               ; preds = %30
  %33 = getelementptr inbounds nuw i8, ptr %0, i64 16
  %34 = load i64, ptr %33, align 8, !tbaa !28
  %35 = inttoptr i64 %34 to ptr
  %36 = getelementptr inbounds nuw i8, ptr %35, i64 200
  %37 = ptrtoint ptr %0 to i64
  %38 = getelementptr inbounds nuw i8, ptr %35, i64 224
  store i64 %37, ptr %38, align 8, !tbaa !31
  %39 = getelementptr inbounds nuw i8, ptr %35, i64 216
  %40 = load ptr, ptr %39, align 8, !tbaa !33
  store ptr %40, ptr %36, align 8, !tbaa !34
  %41 = load double, ptr %1, align 8, !tbaa !13
  %42 = tail call ptr @lj_strfmt_putfnum(ptr noundef nonnull %36, i32 noundef 251658293, double noundef %41) #13
  %43 = load ptr, ptr %42, align 8, !tbaa !34
  %44 = getelementptr inbounds nuw i8, ptr %42, i64 16
  %45 = load ptr, ptr %44, align 8, !tbaa !33
  %46 = ptrtoint ptr %43 to i64
  %47 = ptrtoint ptr %45 to i64
  %48 = sub i64 %46, %47
  %49 = trunc i64 %48 to i32
  store i32 %49, ptr %2, align 4, !tbaa !21
  br label %50

50:                                               ; preds = %30, %32, %21, %6
  %.0 = phi ptr [ %14, %6 ], [ %25, %21 ], [ %45, %32 ], [ null, %30 ]
  ret ptr %.0
}